(lp0
(ibugreport
BugReport
p1
(dp2
S'description'
p3
S'===============================================\nDDDDDDDDDDDDDDDDDD111111111111111111111111111\n===============================================\nj\nj\nj\nj\nj\nj\n--------------------------------------------------\n'
p4
sS'title'
p5
S'Title 1'
p6
sba(ibugreport
BugReport
p7
(dp8
g3
S'##############################################################\n REPORT II\n##############################################################\n\n\ng\n***************************************************************\n'
p9
sg5
S'TITLE 2'
p10
sba.