(lp0
(ibugreport
BugReport
p1
(dp2
S'description'
p3
S'>>> x = int(raw_input("Please enter an integer: "))\nPlease enter an integer: 42\n>>> if x < 0:\n...     x = 0\n...     print \'Negative changed to zero\'\n... elif x == 0:\n...     print \'Zero\'\n... elif x == 1:\n...     print \'Single\'\n... else:\n...     print \'More\'\n...\nMore\n'
p4
sS'title'
p5
S'Bugreport I'
p6
sS'assigned_to'
p7
S'dimmko'
p8
sS'report_status'
p9
S'Open'
p10
sS'opened_by'
p11
g8
sS'time_open'
p12
cdatetime
datetime
p13
(S'\x07\xdf\x0b\x04\t-4\x01r\xa2'
p14
tp15
Rp16
sS'report_id'
p17
I1
sba(ibugreport
BugReport
p18
(dp19
g3
S' compound statement consists of one or more .clauses.. A clause consists of a header and a .suite.. The clause headers of a particular compound statement are all at the same indentation level. Each clause header begins with a uniquely identifying keyword and ends with a colon. A suite is a group of statements controlled by a clause. A suite can be one or more semicolon-separated simple statements on the same line as the header, following the header.s colon, or it can be one or more indented statements on subsequent lines. Only the latter form of a suite can contain nested compound statements; the following is illegal, mostly because it wouldn.t be clear to which if clause a following else clause would belong:\n'
p20
sg5
S'Bugreport II'
p21
sg7
g8
sg9
g10
sg11
g8
sg12
g13
(S'\x07\xdf\x0b\x04\t.4\x0eo\xc7'
p22
tp23
Rp24
sg17
I2
sba.