(lp0
(ibugreport
BugReport
p1
(dp2
S'title'
p3
S'Title I'
p4
sS'assigned_to'
p5
S'dimm'
p6
sS'description'
p7
S'--------------------------\nDesc\n==========================\n\n\n'
p8
sS'report_status'
p9
S'Open'
p10
sS'report_id'
p11
I5
sba(ibugreport
BugReport
p12
(dp13
g3
S'Title II'
p14
sg5
g6
sg7
S'########################################################\n===== DESC II\n########################################################\n'
p15
sg9
g10
sg11
I5
sba(ibugreport
BugReport
p16
(dp17
g3
S' Title III'
p18
sg5
S'dimm'
p19
sg7
S'-------------------------------------------\n Should have report id = 6\n==========================================\n'
p20
sg9
S'Open'
p21
sg11
I5
sba(ibugreport
BugReport
p22
(dp23
g3
S'TTT IIII'
p24
sg5
S'dimm'
p25
sg7
S'===================================\nThis time really id = 6 \n===================================\n\n-----------------------------------\n'
p26
sg9
S'Open'
p27
sg11
I6
sba(ibugreport
BugReport
p28
(dp29
g3
S'Title New'
p30
sg5
S'dimm'
p31
sg7
S'Welcome to the LearnPython.org interactive Python tutorial.\n\nWhether you are an experienced programmer or not, this website is intended for everyone who wishes to learn the Python programming language.\n\nYou are welcome to join our group on Facebook for questions, discussions and updates.\n\nJust click on the chapter you wish to begin from, and follow the instructions. Good luck!\n'
p32
sg9
S'Open'
p33
sg11
I7
sba(ibugreport
BugReport
p34
(dp35
g3
S' Python Identity Operators'
p36
sg5
S'dimmko'
p37
sg7
S'Identity operators compare the memory locations of two objects. There are two Identity operators explained below:\n'
p38
sg9
S'Open'
p39
sg11
I8
sba.